target datalayout = "e-m:e-p270:32:32-p271:32:32-p272:64:64-i64:64-i128:128-f80:128-n8:16:32:64-S128"
target triple = "x86_64-unknown-linux-gnu"

%struct.QTailQLink = type { ptr, ptr }
%struct.VirtioBusClass = type { %struct.BusClass, ptr, ptr, ptr, ptr, ptr, ptr, ptr, ptr, ptr, ptr, ptr, ptr, ptr, ptr, ptr, ptr, ptr, ptr, ptr, ptr, i8, ptr, ptr }
%struct.BusClass = type { %struct.ObjectClass, ptr, ptr, ptr, ptr, ptr, ptr, ptr, i32, i32 }
%struct.ObjectClass = type { ptr, ptr, [4 x ptr], [4 x ptr], ptr, ptr }
%struct.BusState = type { %struct.Object, ptr, ptr, ptr, i32, i8, i8, i32, %union.BusChildHead, %struct.BusStateEntry, %struct.ResettableState }
%struct.Object = type { ptr, ptr, ptr, i32, ptr }
%union.BusChildHead = type { %struct.QTailQLink }
%struct.BusStateEntry = type { ptr, ptr }
%struct.ResettableState = type { i32, i8, i8 }

@.str.8 = private unnamed_addr constant [7 x i8] c"device\00", align 1
@.str.9 = private unnamed_addr constant [101 x i8] c"/home/dtcxzyw/WorkSpace/Projects/compilers/llvm-opt-benchmark/bench/qemu/qemu/include/hw/qdev-core.h\00", align 1
@__func__.DEVICE = private unnamed_addr constant [7 x i8] c"DEVICE\00", align 1
@.str.10 = private unnamed_addr constant [4 x i8] c"bus\00", align 1
@__func__.BUS = private unnamed_addr constant [4 x i8] c"BUS\00", align 1
@.str.11 = private unnamed_addr constant [11 x i8] c"virtio-bus\00", align 1
@.str.12 = private unnamed_addr constant [109 x i8] c"/home/dtcxzyw/WorkSpace/Projects/compilers/llvm-opt-benchmark/bench/qemu/qemu/include/hw/virtio/virtio-bus.h\00", align 1
@__func__.VIRTIO_BUS_GET_CLASS = private unnamed_addr constant [21 x i8] c"VIRTIO_BUS_GET_CLASS\00", align 1

; Function Attrs: nounwind sspstrong uwtable
define internal ptr @DEVICE(ptr noundef %obj) #0 {
entry:
  %obj.addr = alloca ptr, align 8
  store ptr %obj, ptr %obj.addr, align 8
  %0 = load ptr, ptr %obj.addr, align 8
  %call = call ptr @object_dynamic_cast_assert(ptr noundef %0, ptr noundef @.str.8, ptr noundef @.str.9, i32 noundef 77, ptr noundef @__func__.DEVICE)
  ret ptr %call
}

; Function Attrs: nounwind sspstrong uwtable
define internal ptr @BUS(ptr noundef %obj) #0 {
entry:
  %obj.addr = alloca ptr, align 8
  store ptr %obj, ptr %obj.addr, align 8
  %0 = load ptr, ptr %obj.addr, align 8
  %call = call ptr @object_dynamic_cast_assert(ptr noundef %0, ptr noundef @.str.10, ptr noundef @.str.9, i32 noundef 316, ptr noundef @__func__.BUS)
  ret ptr %call
}

; Function Attrs: nounwind sspstrong uwtable
define internal ptr @VIRTIO_BUS_GET_CLASS(ptr noundef %obj) #0 {
entry:
  %obj.addr = alloca ptr, align 8
  store ptr %obj, ptr %obj.addr, align 8
  %0 = load ptr, ptr %obj.addr, align 8
  %call = call ptr @object_get_class(ptr noundef %0)
  %call1 = call ptr @object_class_dynamic_cast_assert(ptr noundef %call, ptr noundef @.str.11, ptr noundef @.str.12, i32 noundef 36, ptr noundef @__func__.VIRTIO_BUS_GET_CLASS)
  ret ptr %call1
}

; Function Attrs: nounwind sspstrong uwtable
define dso_local zeroext i1 @virtio_bus_ioeventfd_enabled(ptr noundef %bus) #0 {
entry:
  %bus.addr = alloca ptr, align 8
  %k = alloca ptr, align 8
  %proxy = alloca ptr, align 8
  store ptr %bus, ptr %bus.addr, align 8
  %0 = load ptr, ptr %bus.addr, align 8
  %call = call ptr @VIRTIO_BUS_GET_CLASS(ptr noundef %0)
  store ptr %call, ptr %k, align 8
  %1 = load ptr, ptr %bus.addr, align 8
  %call1 = call ptr @BUS(ptr noundef %1)
  %parent = getelementptr inbounds %struct.BusState, ptr %call1, i32 0, i32 1
  %2 = load ptr, ptr %parent, align 8
  %call2 = call ptr @DEVICE(ptr noundef %2)
  store ptr %call2, ptr %proxy, align 8
  %3 = load ptr, ptr %k, align 8
  %ioeventfd_assign = getelementptr inbounds %struct.VirtioBusClass, ptr %3, i32 0, i32 19
  %4 = load ptr, ptr %ioeventfd_assign, align 8
  %tobool = icmp ne ptr %4, null
  br i1 %tobool, label %land.rhs, label %land.end

land.rhs:                                         ; preds = %entry
  %5 = load ptr, ptr %k, align 8
  %ioeventfd_enabled = getelementptr inbounds %struct.VirtioBusClass, ptr %5, i32 0, i32 18
  %6 = load ptr, ptr %ioeventfd_enabled, align 8
  %7 = load ptr, ptr %proxy, align 8
  %call3 = call zeroext i1 %6(ptr noundef %7)
  br label %land.end

land.end:                                         ; preds = %land.rhs, %entry
  %8 = phi i1 [ false, %entry ], [ %call3, %land.rhs ]
  ret i1 %8
}