; Function Attrs: nounwind sspstrong uwtable
define dso_local zeroext i1 @virtio_bus_ioeventfd_enabled(ptr noundef %bus) local_unnamed_addr #0 {
entry:
  %call.i = tail call ptr @object_get_class(ptr noundef %bus) #5
  %call1.i = tail call ptr @object_class_dynamic_cast_assert(ptr noundef %call.i, ptr noundef nonnull @.str.11, ptr noundef nonnull @.str.12, i32 noundef 36, ptr noundef nonnull @__func__.VIRTIO_BUS_GET_CLASS) #5
  %call.i3 = tail call ptr @object_dynamic_cast_assert(ptr noundef %bus, ptr noundef nonnull @.str.10, ptr noundef nonnull @.str.9, i32 noundef 316, ptr noundef nonnull @__func__.BUS) #5
  %parent = getelementptr inbounds nuw i8, ptr %call.i3, i64 40
  %0 = load ptr, ptr %parent, align 8
  %call.i4 = tail call ptr @object_dynamic_cast_assert(ptr noundef %0, ptr noundef nonnull @.str.8, ptr noundef nonnull @.str.9, i32 noundef 77, ptr noundef nonnull @__func__.DEVICE) #5
  %ioeventfd_assign = getelementptr inbounds nuw i8, ptr %call1.i, i64 304
  %1 = load ptr, ptr %ioeventfd_assign, align 8
  %tobool.not = icmp eq ptr %1, null
  br i1 %tobool.not, label %land.end, label %land.rhs

land.rhs:                                         ; preds = %entry
  %ioeventfd_enabled = getelementptr inbounds nuw i8, ptr %call1.i, i64 296
  %2 = load ptr, ptr %ioeventfd_enabled, align 8
  %call3 = tail call zeroext i1 %2(ptr noundef %call.i4) #5
  br label %land.end

land.end:                                         ; preds = %land.rhs, %entry
  %3 = phi i1 [ false, %entry ], [ %call3, %land.rhs ]
  ret i1 %3
}